target datalayout = "e-m:e-p270:32:32-p271:32:32-p272:64:64-i64:64-i128:128-f80:128-n8:16:32:64-S128"
target triple = "x86_64-pc-linux-gnu"

%"class.cv::Size_" = type { i32, i32 }
%"class.cv::hfloat" = type { i16 }
%union.Cv32suf = type { i32 }

; Function Attrs: mustprogress nounwind uwtable
define linkonce_odr hidden void @_ZN2cv6hfloatC2Ef(ptr noundef nonnull align 2 dereferenceable(2) %0, float noundef %1) unnamed_addr #0 comdat align 2 {
  %3 = alloca ptr, align 8
  %4 = alloca float, align 4
  %5 = alloca %union.Cv32suf, align 4
  %6 = alloca i32, align 4
  %7 = alloca i32, align 4
  store ptr %0, ptr %3, align 8, !tbaa !24
  store float %1, ptr %4, align 4, !tbaa !71
  %8 = load ptr, ptr %3, align 8
  call void @llvm.lifetime.start.p0(i64 4, ptr %5) #17
  %9 = load float, ptr %4, align 4, !tbaa !71
  store float %9, ptr %5, align 4, !tbaa !73
  call void @llvm.lifetime.start.p0(i64 4, ptr %6) #17
  %10 = load i32, ptr %5, align 4, !tbaa !73
  %11 = and i32 %10, -2147483648
  store i32 %11, ptr %6, align 4, !tbaa !3
  %12 = load i32, ptr %6, align 4, !tbaa !3
  %13 = load i32, ptr %5, align 4, !tbaa !73
  %14 = xor i32 %13, %12
  store i32 %14, ptr %5, align 4, !tbaa !73
  %15 = load i32, ptr %5, align 4, !tbaa !73
  %16 = icmp uge i32 %15, 1199570944
  br i1 %16, label %17, label %23

17:                                               ; preds = %2
  %18 = load i32, ptr %5, align 4, !tbaa !73
  %19 = icmp ugt i32 %18, 2139095040
  %20 = select i1 %19, i32 32256, i32 31744
  %21 = trunc i32 %20 to i16
  %22 = getelementptr inbounds nuw %"class.cv::hfloat", ptr %8, i32 0, i32 0
  store i16 %21, ptr %22, align 2, !tbaa !106
  br label %45

23:                                               ; preds = %2
  %24 = load i32, ptr %5, align 4, !tbaa !73
  %25 = icmp ult i32 %24, 947912704
  br i1 %25, label %26, label %33

26:                                               ; preds = %23
  %27 = load float, ptr %5, align 4, !tbaa !73
  %28 = fadd float %27, 5.000000e-01
  store float %28, ptr %5, align 4, !tbaa !73
  %29 = load i32, ptr %5, align 4, !tbaa !73
  %30 = sub i32 %29, 1056964608
  %31 = trunc i32 %30 to i16
  %32 = getelementptr inbounds nuw %"class.cv::hfloat", ptr %8, i32 0, i32 0
  store i16 %31, ptr %32, align 2, !tbaa !106
  br label %44

33:                                               ; preds = %23
  call void @llvm.lifetime.start.p0(i64 4, ptr %7) #17
  %34 = load i32, ptr %5, align 4, !tbaa !73
  %35 = add i32 %34, -939520001
  store i32 %35, ptr %7, align 4, !tbaa !3
  %36 = load i32, ptr %7, align 4, !tbaa !3
  %37 = load i32, ptr %5, align 4, !tbaa !73
  %38 = lshr i32 %37, 13
  %39 = and i32 %38, 1
  %40 = add i32 %36, %39
  %41 = lshr i32 %40, 13
  %42 = trunc i32 %41 to i16
  %43 = getelementptr inbounds nuw %"class.cv::hfloat", ptr %8, i32 0, i32 0
  store i16 %42, ptr %43, align 2, !tbaa !106
  call void @llvm.lifetime.end.p0(i64 4, ptr %7) #17
  br label %44

44:                                               ; preds = %33, %26
  br label %45

45:                                               ; preds = %44, %17
  %46 = getelementptr inbounds nuw %"class.cv::hfloat", ptr %8, i32 0, i32 0
  %47 = load i16, ptr %46, align 2, !tbaa !106
  %48 = zext i16 %47 to i32
  %49 = load i32, ptr %6, align 4, !tbaa !3
  %50 = lshr i32 %49, 16
  %51 = or i32 %48, %50
  %52 = trunc i32 %51 to i16
  %53 = getelementptr inbounds nuw %"class.cv::hfloat", ptr %8, i32 0, i32 0
  store i16 %52, ptr %53, align 2, !tbaa !106
  call void @llvm.lifetime.end.p0(i64 4, ptr %6) #17
  call void @llvm.lifetime.end.p0(i64 4, ptr %5) #17
  ret void
}

; Function Attrs: inlinehint mustprogress uwtable
define internal i16 @_ZN2cvL13saturate_castINS_6hfloatEEET_f(float noundef %0) #5 {
  %2 = alloca %"class.cv::hfloat", align 2
  %3 = alloca float, align 4
  store float %0, ptr %3, align 4, !tbaa !71
  %4 = load float, ptr %3, align 4, !tbaa !71
  call void @_ZN2cv6hfloatC2Ef(ptr noundef nonnull align 2 dereferenceable(2) %2, float noundef %4)
  %5 = getelementptr inbounds nuw %"class.cv::hfloat", ptr %2, i32 0, i32 0
  %6 = load i16, ptr %5, align 2
  ret i16 %6
}

; Function Attrs: inlinehint mustprogress uwtable
define linkonce_odr hidden void @_ZN2cv12cpu_baseline8cvt1_32fItNS_6hfloatEEEvPKT_mPT0_mNS_5Size_IiEEff(ptr noundef %0, i64 noundef %1, ptr noundef %2, i64 noundef %3, i64 %4, float noundef %5, float noundef %6) #5 comdat {
  %8 = alloca %"class.cv::Size_", align 4
  %9 = alloca ptr, align 8
  %10 = alloca i64, align 8
  %11 = alloca ptr, align 8
  %12 = alloca i64, align 8
  %13 = alloca float, align 4
  %14 = alloca float, align 4
  %15 = alloca i32, align 4
  %16 = alloca i32, align 4
  %17 = alloca %"class.cv::hfloat", align 2
  store i64 %4, ptr %8, align 4
  store ptr %0, ptr %9, align 8, !tbaa !18
  store i64 %1, ptr %10, align 8, !tbaa !11
  store ptr %2, ptr %11, align 8, !tbaa !24
  store i64 %3, ptr %12, align 8, !tbaa !11
  store float %5, ptr %13, align 4, !tbaa !71
  store float %6, ptr %14, align 4, !tbaa !71
  %18 = load i64, ptr %10, align 8, !tbaa !11
  %19 = udiv i64 %18, 2
  store i64 %19, ptr %10, align 8, !tbaa !11
  %20 = load i64, ptr %12, align 8, !tbaa !11
  %21 = udiv i64 %20, 2
  store i64 %21, ptr %12, align 8, !tbaa !11
  call void @llvm.lifetime.start.p0(i64 4, ptr %15) #17
  store i32 0, ptr %15, align 4, !tbaa !3
  br label %22

22:                                               ; preds = %55, %7
  %23 = load i32, ptr %15, align 4, !tbaa !3
  %24 = getelementptr inbounds nuw %"class.cv::Size_", ptr %8, i32 0, i32 1
  %25 = load i32, ptr %24, align 4, !tbaa !70
  %26 = icmp slt i32 %23, %25
  br i1 %26, label %28, label %27

27:                                               ; preds = %22
  call void @llvm.lifetime.end.p0(i64 4, ptr %15) #17
  br label %64

28:                                               ; preds = %22
  call void @llvm.lifetime.start.p0(i64 4, ptr %16) #17
  store i32 0, ptr %16, align 4, !tbaa !3
  br label %29

29:                                               ; preds = %51, %28
  %30 = load i32, ptr %16, align 4, !tbaa !3
  %31 = getelementptr inbounds nuw %"class.cv::Size_", ptr %8, i32 0, i32 0
  %32 = load i32, ptr %31, align 4, !tbaa !69
  %33 = icmp slt i32 %30, %32
  br i1 %33, label %34, label %54

34:                                               ; preds = %29
  call void @llvm.lifetime.start.p0(i64 2, ptr %17) #17
  %35 = load ptr, ptr %9, align 8, !tbaa !18
  %36 = load i32, ptr %16, align 4, !tbaa !3
  %37 = sext i32 %36 to i64
  %38 = getelementptr inbounds i16, ptr %35, i64 %37
  %39 = load i16, ptr %38, align 2, !tbaa !78
  %40 = zext i16 %39 to i32
  %41 = sitofp i32 %40 to float
  %42 = load float, ptr %13, align 4, !tbaa !71
  %43 = load float, ptr %14, align 4, !tbaa !71
  %44 = call float @llvm.fmuladd.f32(float %41, float %42, float %43)
  %45 = call i16 @_ZN2cvL13saturate_castINS_6hfloatEEET_f(float noundef %44)
  %46 = getelementptr inbounds nuw %"class.cv::hfloat", ptr %17, i32 0, i32 0
  store i16 %45, ptr %46, align 2
  %47 = load ptr, ptr %11, align 8, !tbaa !24
  %48 = load i32, ptr %16, align 4, !tbaa !3
  %49 = sext i32 %48 to i64
  %50 = getelementptr inbounds %"class.cv::hfloat", ptr %47, i64 %49
  call void @llvm.memcpy.p0.p0.i64(ptr align 2 %50, ptr align 2 %17, i64 2, i1 false), !tbaa.struct !204
  call void @llvm.lifetime.end.p0(i64 2, ptr %17) #17
  br label %51

51:                                               ; preds = %34
  %52 = load i32, ptr %16, align 4, !tbaa !3
  %53 = add nsw i32 %52, 1
  store i32 %53, ptr %16, align 4, !tbaa !3
  br label %29, !llvm.loop !209

54:                                               ; preds = %29
  call void @llvm.lifetime.end.p0(i64 4, ptr %16) #17
  br label %55

55:                                               ; preds = %54
  %56 = load i32, ptr %15, align 4, !tbaa !3
  %57 = add nsw i32 %56, 1
  store i32 %57, ptr %15, align 4, !tbaa !3
  %58 = load i64, ptr %10, align 8, !tbaa !11
  %59 = load ptr, ptr %9, align 8, !tbaa !18
  %60 = getelementptr inbounds nuw i16, ptr %59, i64 %58
  store ptr %60, ptr %9, align 8, !tbaa !18
  %61 = load i64, ptr %12, align 8, !tbaa !11
  %62 = load ptr, ptr %11, align 8, !tbaa !24
  %63 = getelementptr inbounds nuw %"class.cv::hfloat", ptr %62, i64 %61
  store ptr %63, ptr %11, align 8, !tbaa !24
  br label %22, !llvm.loop !210

64:                                               ; preds = %27
  ret void
}

; Function Attrs: mustprogress uwtable
define internal void @_ZN2cv12cpu_baselineL14cvtScale16u16fEPKhmS2_mPhmNS_5Size_IiEEPv(ptr noundef %0, i64 noundef %1, ptr noundef %2, i64 noundef %3, ptr noundef %4, i64 noundef %5, i64 %6, ptr noundef %7) #1 {
  %9 = alloca %"class.cv::Size_", align 4
  %10 = alloca ptr, align 8
  %11 = alloca i64, align 8
  %12 = alloca ptr, align 8
  %13 = alloca i64, align 8
  %14 = alloca ptr, align 8
  %15 = alloca i64, align 8
  %16 = alloca ptr, align 8
  %17 = alloca ptr, align 8
  %18 = alloca ptr, align 8
  %19 = alloca ptr, align 8
  %20 = alloca %"class.cv::Size_", align 4
  store i64 %6, ptr %9, align 4
  store ptr %0, ptr %10, align 8, !tbaa !9
  store i64 %1, ptr %11, align 8, !tbaa !11
  store ptr %2, ptr %12, align 8, !tbaa !9
  store i64 %3, ptr %13, align 8, !tbaa !11
  store ptr %4, ptr %14, align 8, !tbaa !9
  store i64 %5, ptr %15, align 8, !tbaa !11
  store ptr %7, ptr %16, align 8, !tbaa !7
  call void @llvm.lifetime.start.p0(i64 8, ptr %17) #17
  %21 = load ptr, ptr %10, align 8, !tbaa !9
  store ptr %21, ptr %17, align 8, !tbaa !18
  call void @llvm.lifetime.start.p0(i64 8, ptr %18) #17
  %22 = load ptr, ptr %14, align 8, !tbaa !9
  store ptr %22, ptr %18, align 8, !tbaa !24
  call void @llvm.lifetime.start.p0(i64 8, ptr %19) #17
  %23 = load ptr, ptr %16, align 8, !tbaa !7
  store ptr %23, ptr %19, align 8, !tbaa !13
  %24 = load ptr, ptr %17, align 8, !tbaa !18
  %25 = load i64, ptr %11, align 8, !tbaa !11
  %26 = load ptr, ptr %18, align 8, !tbaa !24
  %27 = load i64, ptr %15, align 8, !tbaa !11
  call void @llvm.memcpy.p0.p0.i64(ptr align 4 %20, ptr align 4 %9, i64 8, i1 false), !tbaa.struct !15
  %28 = load ptr, ptr %19, align 8, !tbaa !13
  %29 = getelementptr inbounds double, ptr %28, i64 0
  %30 = load double, ptr %29, align 8, !tbaa !16
  %31 = fptrunc double %30 to float
  %32 = load ptr, ptr %19, align 8, !tbaa !13
  %33 = getelementptr inbounds double, ptr %32, i64 1
  %34 = load double, ptr %33, align 8, !tbaa !16
  %35 = fptrunc double %34 to float
  %36 = load i64, ptr %20, align 4
  call void @_ZN2cv12cpu_baseline8cvt1_32fItNS_6hfloatEEEvPKT_mPT0_mNS_5Size_IiEEff(ptr noundef %24, i64 noundef %25, ptr noundef %26, i64 noundef %27, i64 %36, float noundef %31, float noundef %35)
  call void @llvm.lifetime.end.p0(i64 8, ptr %19) #17
  call void @llvm.lifetime.end.p0(i64 8, ptr %18) #17
  call void @llvm.lifetime.end.p0(i64 8, ptr %17) #17
  ret void
}